target datalayout = "e-m:e-p270:32:32-p271:32:32-p272:64:64-i64:64-i128:128-f80:128-n8:16:32:64-S128"
target triple = "x86_64-pc-linux-gnu"

@hf_ieee80211_hs20_indication_pps_mo_id = internal global i32 0, align 4
@hf_ieee80211_hs20_indication_anqp_domain_id = internal global i32 0, align 4

; Function Attrs: null_pointer_is_valid sspstrong uwtable
define internal i32 @dissect_hs20_indication(ptr noundef %0, ptr noundef %1, ptr noundef %2, ptr noundef %3) #1 {
  %5 = alloca ptr, align 8
  %6 = alloca ptr, align 8
  %7 = alloca ptr, align 8
  %8 = alloca ptr, align 8
  %9 = alloca i32, align 4
  %10 = alloca i32, align 4
  %11 = alloca i8, align 1
  store ptr %0, ptr %5, align 8
  store ptr %1, ptr %6, align 8
  store ptr %2, ptr %7, align 8
  store ptr %3, ptr %8, align 8
  call void @llvm.lifetime.start.p0(i64 4, ptr %9) #19
  %12 = load ptr, ptr %5, align 8
  %13 = call i32 @tvb_captured_length(ptr noundef %12)
  store i32 %13, ptr %9, align 4
  call void @llvm.lifetime.start.p0(i64 4, ptr %10) #19
  store i32 0, ptr %10, align 4
  call void @llvm.lifetime.start.p0(i64 1, ptr %11) #19
  %14 = load ptr, ptr %5, align 8
  %15 = load i32, ptr %10, align 4
  %16 = call zeroext i8 @tvb_get_uint8(ptr noundef %14, i32 noundef %15)
  store i8 %16, ptr %11, align 1
  %17 = load ptr, ptr %7, align 8
  %18 = load ptr, ptr %5, align 8
  %19 = load i32, ptr %10, align 4
  call void @proto_tree_add_bitmask_list(ptr noundef %17, ptr noundef %18, i32 noundef %19, i32 noundef 1, ptr noundef @dissect_hs20_indication.ieee80211_hs20_indication, i32 noundef 0)
  %20 = load i32, ptr %10, align 4
  %21 = add i32 %20, 1
  store i32 %21, ptr %10, align 4
  %22 = load i32, ptr %9, align 4
  %23 = icmp sge i32 %22, 3
  br i1 %23, label %24, label %37

24:                                               ; preds = %4
  %25 = load i8, ptr %11, align 1
  %26 = zext i8 %25 to i32
  %27 = and i32 %26, 2
  %28 = icmp ne i32 %27, 0
  br i1 %28, label %29, label %37

29:                                               ; preds = %24
  %30 = load ptr, ptr %7, align 8
  %31 = load i32, ptr @hf_ieee80211_hs20_indication_pps_mo_id, align 4
  %32 = load ptr, ptr %5, align 8
  %33 = load i32, ptr %10, align 4
  %34 = call ptr @proto_tree_add_item(ptr noundef %30, i32 noundef %31, ptr noundef %32, i32 noundef %33, i32 noundef 2, i32 noundef -2147483648)
  %35 = load i32, ptr %10, align 4
  %36 = add i32 %35, 2
  store i32 %36, ptr %10, align 4
  br label %37

37:                                               ; preds = %29, %24, %4
  %38 = load i32, ptr %9, align 4
  %39 = load i32, ptr %10, align 4
  %40 = add i32 %39, 2
  %41 = icmp sge i32 %38, %40
  br i1 %41, label %42, label %55

42:                                               ; preds = %37
  %43 = load i8, ptr %11, align 1
  %44 = zext i8 %43 to i32
  %45 = and i32 %44, 4
  %46 = icmp ne i32 %45, 0
  br i1 %46, label %47, label %55

47:                                               ; preds = %42
  %48 = load ptr, ptr %7, align 8
  %49 = load i32, ptr @hf_ieee80211_hs20_indication_anqp_domain_id, align 4
  %50 = load ptr, ptr %5, align 8
  %51 = load i32, ptr %10, align 4
  %52 = call ptr @proto_tree_add_item(ptr noundef %48, i32 noundef %49, ptr noundef %50, i32 noundef %51, i32 noundef 2, i32 noundef -2147483648)
  %53 = load i32, ptr %10, align 4
  %54 = add i32 %53, 2
  store i32 %54, ptr %10, align 4
  br label %55

55:                                               ; preds = %47, %42, %37
  %56 = load i32, ptr %10, align 4
  call void @llvm.lifetime.end.p0(i64 1, ptr %11) #19
  call void @llvm.lifetime.end.p0(i64 4, ptr %10) #19
  call void @llvm.lifetime.end.p0(i64 4, ptr %9) #19
  ret i32 %56
}