; Function Attrs: null_pointer_is_valid sspstrong uwtable
define internal range(i32 1, 6) i32 @dissect_hs20_indication(ptr noundef %0, ptr readnone captures(none) %1, ptr noundef %2, ptr readnone captures(none) %3) #2 {
  %5 = tail call i32 @tvb_captured_length(ptr noundef %0)
  %6 = tail call zeroext i8 @tvb_get_uint8(ptr noundef %0, i32 noundef 0)
  tail call void @proto_tree_add_bitmask_list(ptr noundef %2, ptr noundef %0, i32 noundef 0, i32 noundef 1, ptr noundef nonnull @dissect_hs20_indication.ieee80211_hs20_indication, i32 noundef 0)
  %7 = icmp slt i32 %5, 3
  %8 = and i8 %6, 2
  %.not = icmp eq i8 %8, 0
  %or.cond = select i1 %7, i1 true, i1 %.not
  br i1 %or.cond, label %12, label %9

9:                                                ; preds = %4
  %10 = load i32, ptr @hf_ieee80211_hs20_indication_pps_mo_id, align 4
  %11 = tail call ptr @proto_tree_add_item(ptr noundef %2, i32 noundef %10, ptr noundef %0, i32 noundef 1, i32 noundef 2, i32 noundef -2147483648)
  br label %12

12:                                               ; preds = %9, %4
  %.0 = phi i32 [ 3, %9 ], [ 1, %4 ]
  %13 = add nuw nsw i32 %.0, 2
  %.not21 = icmp slt i32 %5, %13
  %14 = and i8 %6, 4
  %.not22 = icmp eq i8 %14, 0
  %or.cond23 = select i1 %.not21, i1 true, i1 %.not22
  br i1 %or.cond23, label %18, label %15

15:                                               ; preds = %12
  %16 = load i32, ptr @hf_ieee80211_hs20_indication_anqp_domain_id, align 4
  %17 = tail call ptr @proto_tree_add_item(ptr noundef %2, i32 noundef %16, ptr noundef %0, i32 noundef %.0, i32 noundef 2, i32 noundef -2147483648)
  br label %18

18:                                               ; preds = %15, %12
  %.1 = phi i32 [ %13, %15 ], [ %.0, %12 ]
  ret i32 %.1
}